target datalayout = "e-m:e-p270:32:32-p271:32:32-p272:64:64-i64:64-i128:128-f80:128-n8:16:32:64-S128"
target triple = "x86_64-pc-linux-gnu"

%struct.Aig_Obj_t_ = type { %union.anon, ptr, ptr, i64, i32, i32, %union.anon.0 }
%union.anon = type { ptr }
%union.anon.0 = type { ptr }
%struct.Aig_Man_t_ = type { ptr, ptr, ptr, ptr, ptr, ptr, ptr, %struct.Aig_Obj_t_, i32, i32, i32, i32, i32, i32, [7 x i32], i32, ptr, i32, ptr, i32, ptr, i32, i32, i32, ptr, i32, i32, i32, i32, i32, ptr, ptr, i32, ptr, ptr, i32, ptr, ptr, i32, i32, i32, ptr, ptr, ptr, ptr, ptr, ptr, ptr, ptr, ptr, ptr, ptr, ptr, ptr, ptr, i32, ptr, ptr, ptr, ptr, i32, i64, i64, i64, ptr, ptr }
%struct.Inter_Check_t_ = type { i32, i32, ptr, ptr, ptr, ptr, ptr, ptr }
%struct.Cnf_Dat_t_ = type { ptr, i32, i32, i32, ptr, ptr, ptr, ptr, ptr, ptr }
%struct.Vec_Int_t_ = type { i32, i32, ptr }

; Function Attrs: inlinehint nounwind uwtable
define internal i32 @Aig_ManCoNum(ptr noundef %0) #3 {
  %2 = alloca ptr, align 8
  store ptr %0, ptr %2, align 8, !tbaa !3
  %3 = load ptr, ptr %2, align 8, !tbaa !3
  %4 = getelementptr inbounds nuw %struct.Aig_Man_t_, ptr %3, i32 0, i32 14
  %5 = getelementptr inbounds [7 x i32], ptr %4, i64 0, i64 3
  %6 = load i32, ptr %5, align 4, !tbaa !8
  ret i32 %6
}

; Function Attrs: inlinehint nounwind uwtable
define internal ptr @Vec_IntAlloc(i32 noundef %0) #3 {
  %2 = alloca i32, align 4
  %3 = alloca ptr, align 8
  store i32 %0, ptr %2, align 4, !tbaa !8
  call void @llvm.lifetime.start.p0(i64 8, ptr %3) #8
  %4 = call noalias ptr @malloc(i64 noundef 16) #10
  store ptr %4, ptr %3, align 8, !tbaa !59
  %5 = load i32, ptr %2, align 4, !tbaa !8
  %6 = icmp sgt i32 %5, 0
  br i1 %6, label %7, label %11

7:                                                ; preds = %1
  %8 = load i32, ptr %2, align 4, !tbaa !8
  %9 = icmp slt i32 %8, 16
  br i1 %9, label %10, label %11

10:                                               ; preds = %7
  store i32 16, ptr %2, align 4, !tbaa !8
  br label %11

11:                                               ; preds = %10, %7, %1
  %12 = load ptr, ptr %3, align 8, !tbaa !59
  %13 = getelementptr inbounds nuw %struct.Vec_Int_t_, ptr %12, i32 0, i32 1
  store i32 0, ptr %13, align 4, !tbaa !60
  %14 = load i32, ptr %2, align 4, !tbaa !8
  %15 = load ptr, ptr %3, align 8, !tbaa !59
  %16 = getelementptr inbounds nuw %struct.Vec_Int_t_, ptr %15, i32 0, i32 0
  store i32 %14, ptr %16, align 8, !tbaa !62
  %17 = load ptr, ptr %3, align 8, !tbaa !59
  %18 = getelementptr inbounds nuw %struct.Vec_Int_t_, ptr %17, i32 0, i32 0
  %19 = load i32, ptr %18, align 8, !tbaa !62
  %20 = icmp ne i32 %19, 0
  br i1 %20, label %21, label %28

21:                                               ; preds = %11
  %22 = load ptr, ptr %3, align 8, !tbaa !59
  %23 = getelementptr inbounds nuw %struct.Vec_Int_t_, ptr %22, i32 0, i32 0
  %24 = load i32, ptr %23, align 8, !tbaa !62
  %25 = sext i32 %24 to i64
  %26 = mul i64 4, %25
  %27 = call noalias ptr @malloc(i64 noundef %26) #10
  br label %29

28:                                               ; preds = %11
  br label %29

29:                                               ; preds = %28, %21
  %30 = phi ptr [ %27, %21 ], [ null, %28 ]
  %31 = load ptr, ptr %3, align 8, !tbaa !59
  %32 = getelementptr inbounds nuw %struct.Vec_Int_t_, ptr %31, i32 0, i32 2
  store ptr %30, ptr %32, align 8, !tbaa !63
  %33 = load ptr, ptr %3, align 8, !tbaa !59
  call void @llvm.lifetime.end.p0(i64 8, ptr %3) #8
  ret ptr %33
}

; Function Attrs: nounwind uwtable
define ptr @Inter_CheckStart(ptr noundef %0, i32 noundef %1) #0 {
  %3 = alloca ptr, align 8
  %4 = alloca i32, align 4
  %5 = alloca ptr, align 8
  store ptr %0, ptr %3, align 8, !tbaa !3
  store i32 %1, ptr %4, align 4, !tbaa !8
  call void @llvm.lifetime.start.p0(i64 8, ptr %5) #8
  %6 = call noalias ptr @calloc(i64 noundef 1, i64 noundef 56) #9
  store ptr %6, ptr %5, align 8, !tbaa !43
  %7 = call ptr @Vec_IntAlloc(i32 noundef 100)
  %8 = load ptr, ptr %5, align 8, !tbaa !43
  %9 = getelementptr inbounds nuw %struct.Inter_Check_t_, ptr %8, i32 0, i32 5
  store ptr %7, ptr %9, align 8, !tbaa !45
  %10 = call ptr @Vec_IntAlloc(i32 noundef 100)
  %11 = load ptr, ptr %5, align 8, !tbaa !43
  %12 = getelementptr inbounds nuw %struct.Inter_Check_t_, ptr %11, i32 0, i32 6
  store ptr %10, ptr %12, align 8, !tbaa !49
  %13 = call ptr @Vec_IntAlloc(i32 noundef 100)
  %14 = load ptr, ptr %5, align 8, !tbaa !43
  %15 = getelementptr inbounds nuw %struct.Inter_Check_t_, ptr %14, i32 0, i32 7
  store ptr %13, ptr %15, align 8, !tbaa !50
  %16 = load ptr, ptr %3, align 8, !tbaa !3
  %17 = load i32, ptr %4, align 4, !tbaa !8
  %18 = call ptr @Inter_ManUnrollFrames(ptr noundef %16, i32 noundef %17)
  %19 = load ptr, ptr %5, align 8, !tbaa !43
  %20 = getelementptr inbounds nuw %struct.Inter_Check_t_, ptr %19, i32 0, i32 2
  store ptr %18, ptr %20, align 8, !tbaa !51
  %21 = load ptr, ptr %5, align 8, !tbaa !43
  %22 = getelementptr inbounds nuw %struct.Inter_Check_t_, ptr %21, i32 0, i32 2
  %23 = load ptr, ptr %22, align 8, !tbaa !51
  %24 = load ptr, ptr %5, align 8, !tbaa !43
  %25 = getelementptr inbounds nuw %struct.Inter_Check_t_, ptr %24, i32 0, i32 2
  %26 = load ptr, ptr %25, align 8, !tbaa !51
  %27 = call i32 @Aig_ManCoNum(ptr noundef %26)
  %28 = call ptr @Cnf_Derive(ptr noundef %23, i32 noundef %27)
  %29 = load ptr, ptr %5, align 8, !tbaa !43
  %30 = getelementptr inbounds nuw %struct.Inter_Check_t_, ptr %29, i32 0, i32 3
  store ptr %28, ptr %30, align 8, !tbaa !52
  %31 = load ptr, ptr %5, align 8, !tbaa !43
  %32 = getelementptr inbounds nuw %struct.Inter_Check_t_, ptr %31, i32 0, i32 3
  %33 = load ptr, ptr %32, align 8, !tbaa !52
  %34 = call ptr @Cnf_DataWriteIntoSolver(ptr noundef %33, i32 noundef 1, i32 noundef 0)
  %35 = load ptr, ptr %5, align 8, !tbaa !43
  %36 = getelementptr inbounds nuw %struct.Inter_Check_t_, ptr %35, i32 0, i32 4
  store ptr %34, ptr %36, align 8, !tbaa !53
  %37 = load i32, ptr %4, align 4, !tbaa !8
  %38 = load ptr, ptr %5, align 8, !tbaa !43
  %39 = getelementptr inbounds nuw %struct.Inter_Check_t_, ptr %38, i32 0, i32 0
  store i32 %37, ptr %39, align 8, !tbaa !54
  %40 = load ptr, ptr %5, align 8, !tbaa !43
  %41 = getelementptr inbounds nuw %struct.Inter_Check_t_, ptr %40, i32 0, i32 3
  %42 = load ptr, ptr %41, align 8, !tbaa !52
  %43 = getelementptr inbounds nuw %struct.Cnf_Dat_t_, ptr %42, i32 0, i32 1
  %44 = load i32, ptr %43, align 8, !tbaa !55
  %45 = load ptr, ptr %5, align 8, !tbaa !43
  %46 = getelementptr inbounds nuw %struct.Inter_Check_t_, ptr %45, i32 0, i32 1
  store i32 %44, ptr %46, align 4, !tbaa !58
  %47 = load ptr, ptr %5, align 8, !tbaa !43
  call void @llvm.lifetime.end.p0(i64 8, ptr %5) #8
  ret ptr %47
}