; Function Attrs: nounwind uwtable
define noalias noundef ptr @Inter_CheckStart(ptr noundef readonly captures(none) %0, i32 noundef %1) local_unnamed_addr #0 {
  %3 = tail call noalias dereferenceable_or_null(56) ptr @calloc(i64 noundef 1, i64 noundef 56) #8
  %4 = tail call noalias dereferenceable_or_null(16) ptr @malloc(i64 noundef 16) #9
  %5 = getelementptr inbounds nuw i8, ptr %4, i64 4
  store i32 0, ptr %5, align 4, !tbaa !42
  store i32 100, ptr %4, align 8, !tbaa !44
  %6 = tail call noalias dereferenceable_or_null(400) ptr @malloc(i64 noundef 400) #9
  %7 = getelementptr inbounds nuw i8, ptr %4, i64 8
  store ptr %6, ptr %7, align 8, !tbaa !45
  %8 = getelementptr inbounds nuw i8, ptr %3, i64 32
  store ptr %4, ptr %8, align 8, !tbaa !46
  %9 = tail call noalias dereferenceable_or_null(16) ptr @malloc(i64 noundef 16) #9
  %10 = getelementptr inbounds nuw i8, ptr %9, i64 4
  store i32 0, ptr %10, align 4, !tbaa !42
  store i32 100, ptr %9, align 8, !tbaa !44
  %11 = tail call noalias dereferenceable_or_null(400) ptr @malloc(i64 noundef 400) #9
  %12 = getelementptr inbounds nuw i8, ptr %9, i64 8
  store ptr %11, ptr %12, align 8, !tbaa !45
  %13 = getelementptr inbounds nuw i8, ptr %3, i64 40
  store ptr %9, ptr %13, align 8, !tbaa !50
  %14 = tail call noalias dereferenceable_or_null(16) ptr @malloc(i64 noundef 16) #9
  %15 = getelementptr inbounds nuw i8, ptr %14, i64 4
  store i32 0, ptr %15, align 4, !tbaa !42
  store i32 100, ptr %14, align 8, !tbaa !44
  %16 = tail call noalias dereferenceable_or_null(400) ptr @malloc(i64 noundef 400) #9
  %17 = getelementptr inbounds nuw i8, ptr %14, i64 8
  store ptr %16, ptr %17, align 8, !tbaa !45
  %18 = getelementptr inbounds nuw i8, ptr %3, i64 48
  store ptr %14, ptr %18, align 8, !tbaa !51
  %19 = tail call ptr @Inter_ManUnrollFrames(ptr noundef %0, i32 noundef %1)
  %20 = getelementptr inbounds nuw i8, ptr %3, i64 8
  store ptr %19, ptr %20, align 8, !tbaa !52
  %21 = getelementptr i8, ptr %19, i64 140
  %.val = load i32, ptr %21, align 4, !tbaa !3
  %22 = tail call ptr @Cnf_Derive(ptr noundef %19, i32 noundef %.val) #7
  %23 = getelementptr inbounds nuw i8, ptr %3, i64 16
  store ptr %22, ptr %23, align 8, !tbaa !53
  %24 = tail call ptr @Cnf_DataWriteIntoSolver(ptr noundef %22, i32 noundef 1, i32 noundef 0) #7
  %25 = getelementptr inbounds nuw i8, ptr %3, i64 24
  store ptr %24, ptr %25, align 8, !tbaa !54
  store i32 %1, ptr %3, align 8, !tbaa !55
  %26 = getelementptr inbounds nuw i8, ptr %22, i64 8
  %27 = load i32, ptr %26, align 8, !tbaa !56
  %28 = getelementptr inbounds nuw i8, ptr %3, i64 4
  store i32 %27, ptr %28, align 4, !tbaa !59
  ret ptr %3
}